target datalayout = "e-m:e-p270:32:32-p271:32:32-p272:64:64-i64:64-i128:128-f80:128-n8:16:32:64-S128"
target triple = "x86_64-pc-linux-gnu"

; Function Attrs: alwaysinline nounwind willreturn memory(none) uwtable
define internal zeroext i16 @av_bswap16(i16 noundef zeroext %0) #4 {
  %2 = alloca i16, align 2
  store i16 %0, ptr %2, align 2, !tbaa !44
  %3 = load i16, ptr %2, align 2, !tbaa !44
  %4 = zext i16 %3 to i32
  %5 = ashr i32 %4, 8
  %6 = load i16, ptr %2, align 2, !tbaa !44
  %7 = zext i16 %6 to i32
  %8 = shl i32 %7, 8
  %9 = or i32 %5, %8
  %10 = trunc i32 %9 to i16
  store i16 %10, ptr %2, align 2, !tbaa !44
  %11 = load i16, ptr %2, align 2, !tbaa !44
  ret i16 %11
}

; Function Attrs: alwaysinline nounwind uwtable
define internal void @rgb16_32ToUV_half_c_template(ptr noundef %0, ptr noundef %1, ptr noundef %2, i32 noundef %3, i32 noundef %4, i32 noundef %5, i32 noundef %6, i32 noundef %7, i32 noundef %8, i32 noundef %9, i32 noundef %10, i32 noundef %11, i32 noundef %12, i32 noundef %13, i32 noundef %14, i32 noundef %15, ptr noundef %16, i32 noundef %17) #3 {
  %19 = alloca ptr, align 8
  %20 = alloca ptr, align 8
  %21 = alloca ptr, align 8
  %22 = alloca i32, align 4
  %23 = alloca i32, align 4
  %24 = alloca i32, align 4
  %25 = alloca i32, align 4
  %26 = alloca i32, align 4
  %27 = alloca i32, align 4
  %28 = alloca i32, align 4
  %29 = alloca i32, align 4
  %30 = alloca i32, align 4
  %31 = alloca i32, align 4
  %32 = alloca i32, align 4
  %33 = alloca i32, align 4
  %34 = alloca i32, align 4
  %35 = alloca ptr, align 8
  %36 = alloca i32, align 4
  %37 = alloca i32, align 4
  %38 = alloca i32, align 4
  %39 = alloca i32, align 4
  %40 = alloca i32, align 4
  %41 = alloca i32, align 4
  %42 = alloca i32, align 4
  %43 = alloca i32, align 4
  %44 = alloca i32, align 4
  %45 = alloca i32, align 4
  %46 = alloca i32, align 4
  %47 = alloca i32, align 4
  %48 = alloca i32, align 4
  %49 = alloca i32, align 4
  %50 = alloca i32, align 4
  %51 = alloca i32, align 4
  store ptr %0, ptr %19, align 8, !tbaa !43
  store ptr %1, ptr %20, align 8, !tbaa !43
  store ptr %2, ptr %21, align 8, !tbaa !34
  store i32 %3, ptr %22, align 4, !tbaa !30
  store i32 %4, ptr %23, align 4, !tbaa !30
  store i32 %5, ptr %24, align 4, !tbaa !30
  store i32 %6, ptr %25, align 4, !tbaa !30
  store i32 %7, ptr %26, align 4, !tbaa !30
  store i32 %8, ptr %27, align 4, !tbaa !30
  store i32 %9, ptr %28, align 4, !tbaa !30
  store i32 %10, ptr %29, align 4, !tbaa !30
  store i32 %11, ptr %30, align 4, !tbaa !30
  store i32 %12, ptr %31, align 4, !tbaa !30
  store i32 %13, ptr %32, align 4, !tbaa !30
  store i32 %14, ptr %33, align 4, !tbaa !30
  store i32 %15, ptr %34, align 4, !tbaa !30
  store ptr %16, ptr %35, align 8, !tbaa !35
  store i32 %17, ptr %36, align 4, !tbaa !30
  call void @llvm.lifetime.start.p0(i64 4, ptr %37) #9
  %52 = load ptr, ptr %35, align 8, !tbaa !35
  %53 = getelementptr inbounds i32, ptr %52, i64 3
  %54 = load i32, ptr %53, align 4, !tbaa !30
  %55 = load i32, ptr %31, align 4, !tbaa !30
  %56 = shl i32 1, %55
  %57 = mul nsw i32 %54, %56
  store i32 %57, ptr %37, align 4, !tbaa !30
  call void @llvm.lifetime.start.p0(i64 4, ptr %38) #9
  %58 = load ptr, ptr %35, align 8, !tbaa !35
  %59 = getelementptr inbounds i32, ptr %58, i64 4
  %60 = load i32, ptr %59, align 4, !tbaa !30
  %61 = load i32, ptr %32, align 4, !tbaa !30
  %62 = shl i32 1, %61
  %63 = mul nsw i32 %60, %62
  store i32 %63, ptr %38, align 4, !tbaa !30
  call void @llvm.lifetime.start.p0(i64 4, ptr %39) #9
  %64 = load ptr, ptr %35, align 8, !tbaa !35
  %65 = getelementptr inbounds i32, ptr %64, i64 5
  %66 = load i32, ptr %65, align 4, !tbaa !30
  %67 = load i32, ptr %33, align 4, !tbaa !30
  %68 = shl i32 1, %67
  %69 = mul nsw i32 %66, %68
  store i32 %69, ptr %39, align 4, !tbaa !30
  call void @llvm.lifetime.start.p0(i64 4, ptr %40) #9
  %70 = load ptr, ptr %35, align 8, !tbaa !35
  %71 = getelementptr inbounds i32, ptr %70, i64 6
  %72 = load i32, ptr %71, align 4, !tbaa !30
  %73 = load i32, ptr %31, align 4, !tbaa !30
  %74 = shl i32 1, %73
  %75 = mul nsw i32 %72, %74
  store i32 %75, ptr %40, align 4, !tbaa !30
  call void @llvm.lifetime.start.p0(i64 4, ptr %41) #9
  %76 = load ptr, ptr %35, align 8, !tbaa !35
  %77 = getelementptr inbounds i32, ptr %76, i64 7
  %78 = load i32, ptr %77, align 4, !tbaa !30
  %79 = load i32, ptr %32, align 4, !tbaa !30
  %80 = shl i32 1, %79
  %81 = mul nsw i32 %78, %80
  store i32 %81, ptr %41, align 4, !tbaa !30
  call void @llvm.lifetime.start.p0(i64 4, ptr %42) #9
  %82 = load ptr, ptr %35, align 8, !tbaa !35
  %83 = getelementptr inbounds i32, ptr %82, i64 8
  %84 = load i32, ptr %83, align 4, !tbaa !30
  %85 = load i32, ptr %33, align 4, !tbaa !30
  %86 = shl i32 1, %85
  %87 = mul nsw i32 %84, %86
  store i32 %87, ptr %42, align 4, !tbaa !30
  call void @llvm.lifetime.start.p0(i64 4, ptr %43) #9
  %88 = load i32, ptr %28, align 4, !tbaa !30
  %89 = load i32, ptr %30, align 4, !tbaa !30
  %90 = or i32 %88, %89
  %91 = xor i32 %90, -1
  store i32 %91, ptr %43, align 4, !tbaa !30
  call void @llvm.lifetime.start.p0(i64 4, ptr %44) #9
  %92 = load i32, ptr %34, align 4, !tbaa !30
  %93 = shl i32 256, %92
  %94 = load i32, ptr %34, align 4, !tbaa !30
  %95 = sub nsw i32 %94, 6
  %96 = shl i32 1, %95
  %97 = add i32 %93, %96
  store i32 %97, ptr %44, align 4, !tbaa !30
  call void @llvm.lifetime.start.p0(i64 4, ptr %45) #9
  %98 = load i32, ptr %28, align 4, !tbaa !30
  %99 = shl i32 %98, 1
  %100 = load i32, ptr %28, align 4, !tbaa !30
  %101 = or i32 %100, %99
  store i32 %101, ptr %28, align 4, !tbaa !30
  %102 = load i32, ptr %30, align 4, !tbaa !30
  %103 = shl i32 %102, 1
  %104 = load i32, ptr %30, align 4, !tbaa !30
  %105 = or i32 %104, %103
  store i32 %105, ptr %30, align 4, !tbaa !30
  %106 = load i32, ptr %29, align 4, !tbaa !30
  %107 = shl i32 %106, 1
  %108 = load i32, ptr %29, align 4, !tbaa !30
  %109 = or i32 %108, %107
  store i32 %109, ptr %29, align 4, !tbaa !30
  store i32 0, ptr %45, align 4, !tbaa !30
  br label %110

110:                                              ; preds = %340, %18
  %111 = load i32, ptr %45, align 4, !tbaa !30
  %112 = load i32, ptr %22, align 4, !tbaa !30
  %113 = icmp slt i32 %111, %112
  br i1 %113, label %114, label %343

114:                                              ; preds = %110
  call void @llvm.lifetime.start.p0(i64 4, ptr %46) #9
  %115 = load i32, ptr %23, align 4, !tbaa !30
  %116 = icmp eq i32 %115, 26
  br i1 %116, label %126, label %117

117:                                              ; preds = %114
  %118 = load i32, ptr %23, align 4, !tbaa !30
  %119 = icmp eq i32 %118, 28
  br i1 %119, label %126, label %120

120:                                              ; preds = %117
  %121 = load i32, ptr %23, align 4, !tbaa !30
  %122 = icmp eq i32 %121, 25
  br i1 %122, label %126, label %123

123:                                              ; preds = %120
  %124 = load i32, ptr %23, align 4, !tbaa !30
  %125 = icmp eq i32 %124, 27
  br i1 %125, label %126, label %135

126:                                              ; preds = %123, %120, %117, %114
  %127 = load ptr, ptr %21, align 8, !tbaa !34
  %128 = load i32, ptr %45, align 4, !tbaa !30
  %129 = mul nsw i32 2, %128
  %130 = add nsw i32 %129, 0
  %131 = mul nsw i32 %130, 4
  %132 = sext i32 %131 to i64
  %133 = getelementptr inbounds i8, ptr %127, i64 %132
  %134 = load i32, ptr %133, align 4, !tbaa !36
  br label %178

135:                                              ; preds = %123
  %136 = load i32, ptr %23, align 4, !tbaa !30
  %137 = icmp eq i32 %136, 193
  br i1 %137, label %141, label %138

138:                                              ; preds = %135
  %139 = load i32, ptr %23, align 4, !tbaa !30
  %140 = icmp eq i32 %139, 195
  br i1 %140, label %141, label %150

141:                                              ; preds = %138, %135
  %142 = load ptr, ptr %21, align 8, !tbaa !34
  %143 = load i32, ptr %45, align 4, !tbaa !30
  %144 = mul nsw i32 2, %143
  %145 = add nsw i32 %144, 0
  %146 = mul nsw i32 %145, 4
  %147 = sext i32 %146 to i64
  %148 = getelementptr inbounds i8, ptr %142, i64 %147
  %149 = load i32, ptr %148, align 1, !tbaa !36
  br label %176

150:                                              ; preds = %138
  %151 = load i32, ptr %36, align 4, !tbaa !30
  %152 = icmp ne i32 %151, 0
  br i1 %152, label %153, label %164

153:                                              ; preds = %150
  %154 = load ptr, ptr %21, align 8, !tbaa !34
  %155 = load i32, ptr %45, align 4, !tbaa !30
  %156 = mul nsw i32 2, %155
  %157 = add nsw i32 %156, 0
  %158 = mul nsw i32 %157, 2
  %159 = sext i32 %158 to i64
  %160 = getelementptr inbounds i8, ptr %154, i64 %159
  %161 = load i16, ptr %160, align 1, !tbaa !36
  %162 = call zeroext i16 @av_bswap16(i16 noundef zeroext %161) #10
  %163 = zext i16 %162 to i32
  br label %174

164:                                              ; preds = %150
  %165 = load ptr, ptr %21, align 8, !tbaa !34
  %166 = load i32, ptr %45, align 4, !tbaa !30
  %167 = mul nsw i32 2, %166
  %168 = add nsw i32 %167, 0
  %169 = mul nsw i32 %168, 2
  %170 = sext i32 %169 to i64
  %171 = getelementptr inbounds i8, ptr %165, i64 %170
  %172 = load i16, ptr %171, align 1, !tbaa !36
  %173 = zext i16 %172 to i32
  br label %174

174:                                              ; preds = %164, %153
  %175 = phi i32 [ %163, %153 ], [ %173, %164 ]
  br label %176

176:                                              ; preds = %174, %141
  %177 = phi i32 [ %149, %141 ], [ %175, %174 ]
  br label %178

178:                                              ; preds = %176, %126
  %179 = phi i32 [ %134, %126 ], [ %177, %176 ]
  %180 = load i32, ptr %27, align 4, !tbaa !30
  %181 = lshr i32 %179, %180
  store i32 %181, ptr %46, align 4, !tbaa !30
  call void @llvm.lifetime.start.p0(i64 4, ptr %47) #9
  %182 = load i32, ptr %23, align 4, !tbaa !30
  %183 = icmp eq i32 %182, 26
  br i1 %183, label %193, label %184

184:                                              ; preds = %178
  %185 = load i32, ptr %23, align 4, !tbaa !30
  %186 = icmp eq i32 %185, 28
  br i1 %186, label %193, label %187

187:                                              ; preds = %184
  %188 = load i32, ptr %23, align 4, !tbaa !30
  %189 = icmp eq i32 %188, 25
  br i1 %189, label %193, label %190

190:                                              ; preds = %187
  %191 = load i32, ptr %23, align 4, !tbaa !30
  %192 = icmp eq i32 %191, 27
  br i1 %192, label %193, label %202

193:                                              ; preds = %190, %187, %184, %178
  %194 = load ptr, ptr %21, align 8, !tbaa !34
  %195 = load i32, ptr %45, align 4, !tbaa !30
  %196 = mul nsw i32 2, %195
  %197 = add nsw i32 %196, 1
  %198 = mul nsw i32 %197, 4
  %199 = sext i32 %198 to i64
  %200 = getelementptr inbounds i8, ptr %194, i64 %199
  %201 = load i32, ptr %200, align 4, !tbaa !36
  br label %245

202:                                              ; preds = %190
  %203 = load i32, ptr %23, align 4, !tbaa !30
  %204 = icmp eq i32 %203, 193
  br i1 %204, label %208, label %205

205:                                              ; preds = %202
  %206 = load i32, ptr %23, align 4, !tbaa !30
  %207 = icmp eq i32 %206, 195
  br i1 %207, label %208, label %217

208:                                              ; preds = %205, %202
  %209 = load ptr, ptr %21, align 8, !tbaa !34
  %210 = load i32, ptr %45, align 4, !tbaa !30
  %211 = mul nsw i32 2, %210
  %212 = add nsw i32 %211, 1
  %213 = mul nsw i32 %212, 4
  %214 = sext i32 %213 to i64
  %215 = getelementptr inbounds i8, ptr %209, i64 %214
  %216 = load i32, ptr %215, align 1, !tbaa !36
  br label %243

217:                                              ; preds = %205
  %218 = load i32, ptr %36, align 4, !tbaa !30
  %219 = icmp ne i32 %218, 0
  br i1 %219, label %220, label %231

220:                                              ; preds = %217
  %221 = load ptr, ptr %21, align 8, !tbaa !34
  %222 = load i32, ptr %45, align 4, !tbaa !30
  %223 = mul nsw i32 2, %222
  %224 = add nsw i32 %223, 1
  %225 = mul nsw i32 %224, 2
  %226 = sext i32 %225 to i64
  %227 = getelementptr inbounds i8, ptr %221, i64 %226
  %228 = load i16, ptr %227, align 1, !tbaa !36
  %229 = call zeroext i16 @av_bswap16(i16 noundef zeroext %228) #10
  %230 = zext i16 %229 to i32
  br label %241

231:                                              ; preds = %217
  %232 = load ptr, ptr %21, align 8, !tbaa !34
  %233 = load i32, ptr %45, align 4, !tbaa !30
  %234 = mul nsw i32 2, %233
  %235 = add nsw i32 %234, 1
  %236 = mul nsw i32 %235, 2
  %237 = sext i32 %236 to i64
  %238 = getelementptr inbounds i8, ptr %232, i64 %237
  %239 = load i16, ptr %238, align 1, !tbaa !36
  %240 = zext i16 %239 to i32
  br label %241

241:                                              ; preds = %231, %220
  %242 = phi i32 [ %230, %220 ], [ %240, %231 ]
  br label %243

243:                                              ; preds = %241, %208
  %244 = phi i32 [ %216, %208 ], [ %242, %241 ]
  br label %245

245:                                              ; preds = %243, %193
  %246 = phi i32 [ %201, %193 ], [ %244, %243 ]
  %247 = load i32, ptr %27, align 4, !tbaa !30
  %248 = lshr i32 %246, %247
  store i32 %248, ptr %47, align 4, !tbaa !30
  call void @llvm.lifetime.start.p0(i64 4, ptr %48) #9
  call void @llvm.lifetime.start.p0(i64 4, ptr %49) #9
  call void @llvm.lifetime.start.p0(i64 4, ptr %50) #9
  %249 = load i32, ptr %46, align 4, !tbaa !30
  %250 = load i32, ptr %43, align 4, !tbaa !30
  %251 = and i32 %249, %250
  %252 = load i32, ptr %47, align 4, !tbaa !30
  %253 = load i32, ptr %43, align 4, !tbaa !30
  %254 = and i32 %252, %253
  %255 = add i32 %251, %254
  store i32 %255, ptr %50, align 4, !tbaa !30
  call void @llvm.lifetime.start.p0(i64 4, ptr %51) #9
  %256 = load i32, ptr %46, align 4, !tbaa !30
  %257 = load i32, ptr %47, align 4, !tbaa !30
  %258 = add i32 %256, %257
  %259 = load i32, ptr %50, align 4, !tbaa !30
  %260 = sub i32 %258, %259
  store i32 %260, ptr %51, align 4, !tbaa !30
  %261 = load i32, ptr %51, align 4, !tbaa !30
  %262 = load i32, ptr %30, align 4, !tbaa !30
  %263 = and i32 %261, %262
  %264 = load i32, ptr %26, align 4, !tbaa !30
  %265 = ashr i32 %263, %264
  store i32 %265, ptr %48, align 4, !tbaa !30
  %266 = load i32, ptr %27, align 4, !tbaa !30
  %267 = icmp ne i32 %266, 0
  br i1 %267, label %280, label %268

268:                                              ; preds = %245
  %269 = load i32, ptr %23, align 4, !tbaa !30
  %270 = icmp eq i32 %269, 41
  br i1 %270, label %280, label %271

271:                                              ; preds = %268
  %272 = load i32, ptr %23, align 4, !tbaa !30
  %273 = icmp eq i32 %272, 40
  br i1 %273, label %280, label %274

274:                                              ; preds = %271
  %275 = load i32, ptr %23, align 4, !tbaa !30
  %276 = icmp eq i32 %275, 37
  br i1 %276, label %280, label %277

277:                                              ; preds = %274
  %278 = load i32, ptr %23, align 4, !tbaa !30
  %279 = icmp eq i32 %278, 36
  br i1 %279, label %280, label %284

280:                                              ; preds = %277, %274, %271, %268, %245
  %281 = load i32, ptr %25, align 4, !tbaa !30
  %282 = load i32, ptr %50, align 4, !tbaa !30
  %283 = ashr i32 %282, %281
  store i32 %283, ptr %50, align 4, !tbaa !30
  br label %290

284:                                              ; preds = %277
  %285 = load i32, ptr %50, align 4, !tbaa !30
  %286 = load i32, ptr %29, align 4, !tbaa !30
  %287 = and i32 %285, %286
  %288 = load i32, ptr %25, align 4, !tbaa !30
  %289 = ashr i32 %287, %288
  store i32 %289, ptr %50, align 4, !tbaa !30
  br label %290

290:                                              ; preds = %284, %280
  %291 = load i32, ptr %51, align 4, !tbaa !30
  %292 = load i32, ptr %28, align 4, !tbaa !30
  %293 = and i32 %291, %292
  %294 = load i32, ptr %24, align 4, !tbaa !30
  %295 = ashr i32 %293, %294
  store i32 %295, ptr %49, align 4, !tbaa !30
  %296 = load i32, ptr %37, align 4, !tbaa !30
  %297 = load i32, ptr %49, align 4, !tbaa !30
  %298 = mul nsw i32 %296, %297
  %299 = load i32, ptr %38, align 4, !tbaa !30
  %300 = load i32, ptr %50, align 4, !tbaa !30
  %301 = mul nsw i32 %299, %300
  %302 = add nsw i32 %298, %301
  %303 = load i32, ptr %39, align 4, !tbaa !30
  %304 = load i32, ptr %48, align 4, !tbaa !30
  %305 = mul nsw i32 %303, %304
  %306 = add nsw i32 %302, %305
  %307 = load i32, ptr %44, align 4, !tbaa !30
  %308 = add i32 %306, %307
  %309 = load i32, ptr %34, align 4, !tbaa !30
  %310 = sub nsw i32 %309, 6
  %311 = add nsw i32 %310, 1
  %312 = lshr i32 %308, %311
  %313 = trunc i32 %312 to i16
  %314 = load ptr, ptr %19, align 8, !tbaa !43
  %315 = load i32, ptr %45, align 4, !tbaa !30
  %316 = sext i32 %315 to i64
  %317 = getelementptr inbounds i16, ptr %314, i64 %316
  store i16 %313, ptr %317, align 2, !tbaa !44
  %318 = load i32, ptr %40, align 4, !tbaa !30
  %319 = load i32, ptr %49, align 4, !tbaa !30
  %320 = mul nsw i32 %318, %319
  %321 = load i32, ptr %41, align 4, !tbaa !30
  %322 = load i32, ptr %50, align 4, !tbaa !30
  %323 = mul nsw i32 %321, %322
  %324 = add nsw i32 %320, %323
  %325 = load i32, ptr %42, align 4, !tbaa !30
  %326 = load i32, ptr %48, align 4, !tbaa !30
  %327 = mul nsw i32 %325, %326
  %328 = add nsw i32 %324, %327
  %329 = load i32, ptr %44, align 4, !tbaa !30
  %330 = add i32 %328, %329
  %331 = load i32, ptr %34, align 4, !tbaa !30
  %332 = sub nsw i32 %331, 6
  %333 = add nsw i32 %332, 1
  %334 = lshr i32 %330, %333
  %335 = trunc i32 %334 to i16
  %336 = load ptr, ptr %20, align 8, !tbaa !43
  %337 = load i32, ptr %45, align 4, !tbaa !30
  %338 = sext i32 %337 to i64
  %339 = getelementptr inbounds i16, ptr %336, i64 %338
  store i16 %335, ptr %339, align 2, !tbaa !44
  call void @llvm.lifetime.end.p0(i64 4, ptr %51) #9
  call void @llvm.lifetime.end.p0(i64 4, ptr %50) #9
  call void @llvm.lifetime.end.p0(i64 4, ptr %49) #9
  call void @llvm.lifetime.end.p0(i64 4, ptr %48) #9
  call void @llvm.lifetime.end.p0(i64 4, ptr %47) #9
  call void @llvm.lifetime.end.p0(i64 4, ptr %46) #9
  br label %340

340:                                              ; preds = %290
  %341 = load i32, ptr %45, align 4, !tbaa !30
  %342 = add nsw i32 %341, 1
  store i32 %342, ptr %45, align 4, !tbaa !30
  br label %110, !llvm.loop !144

343:                                              ; preds = %110
  call void @llvm.lifetime.end.p0(i64 4, ptr %45) #9
  call void @llvm.lifetime.end.p0(i64 4, ptr %44) #9
  call void @llvm.lifetime.end.p0(i64 4, ptr %43) #9
  call void @llvm.lifetime.end.p0(i64 4, ptr %42) #9
  call void @llvm.lifetime.end.p0(i64 4, ptr %41) #9
  call void @llvm.lifetime.end.p0(i64 4, ptr %40) #9
  call void @llvm.lifetime.end.p0(i64 4, ptr %39) #9
  call void @llvm.lifetime.end.p0(i64 4, ptr %38) #9
  call void @llvm.lifetime.end.p0(i64 4, ptr %37) #9
  ret void
}

; Function Attrs: nounwind uwtable
define internal void @rgb321ToUV_half_c(ptr noundef %0, ptr noundef %1, ptr noundef %2, ptr noundef %3, ptr noundef %4, i32 noundef %5, ptr noundef %6, ptr noundef %7) #2 {
  %9 = alloca ptr, align 8
  %10 = alloca ptr, align 8
  %11 = alloca ptr, align 8
  %12 = alloca ptr, align 8
  %13 = alloca ptr, align 8
  %14 = alloca i32, align 4
  %15 = alloca ptr, align 8
  %16 = alloca ptr, align 8
  store ptr %0, ptr %9, align 8, !tbaa !34
  store ptr %1, ptr %10, align 8, !tbaa !34
  store ptr %2, ptr %11, align 8, !tbaa !34
  store ptr %3, ptr %12, align 8, !tbaa !34
  store ptr %4, ptr %13, align 8, !tbaa !34
  store i32 %5, ptr %14, align 4, !tbaa !30
  store ptr %6, ptr %15, align 8, !tbaa !35
  store ptr %7, ptr %16, align 8, !tbaa !31
  %17 = load ptr, ptr %9, align 8, !tbaa !34
  %18 = load ptr, ptr %10, align 8, !tbaa !34
  %19 = load ptr, ptr %12, align 8, !tbaa !34
  %20 = load i32, ptr %14, align 4, !tbaa !30
  %21 = load ptr, ptr %15, align 8, !tbaa !35
  call void @rgb16_32ToUV_half_c_template(ptr noundef %17, ptr noundef %18, ptr noundef %19, i32 noundef %20, i32 noundef 27, i32 noundef 0, i32 noundef 0, i32 noundef 16, i32 noundef 8, i32 noundef 255, i32 noundef 65280, i32 noundef 16711680, i32 noundef 8, i32 noundef 0, i32 noundef 8, i32 noundef 23, ptr noundef %21, i32 noundef 0)
  ret void
}