; Function Attrs: nofree norecurse nosync nounwind memory(argmem: readwrite) uwtable
define internal void @rgb321ToUV_half_c(ptr noundef writeonly captures(none) %0, ptr noundef writeonly captures(none) %1, ptr readnone captures(none) %2, ptr noundef readonly captures(none) %3, ptr readnone captures(none) %4, i32 noundef %5, ptr noundef readonly captures(none) %6, ptr readnone captures(none) %7) #1 {
  %9 = getelementptr inbounds nuw i8, ptr %6, i64 12
  %10 = load i32, ptr %9, align 4, !tbaa !42
  %11 = getelementptr inbounds nuw i8, ptr %6, i64 16
  %12 = load i32, ptr %11, align 4, !tbaa !42
  %13 = getelementptr inbounds nuw i8, ptr %6, i64 20
  %14 = load i32, ptr %13, align 4, !tbaa !42
  %15 = getelementptr inbounds nuw i8, ptr %6, i64 24
  %16 = load i32, ptr %15, align 4, !tbaa !42
  %17 = getelementptr inbounds nuw i8, ptr %6, i64 28
  %18 = load i32, ptr %17, align 4, !tbaa !42
  %19 = getelementptr inbounds nuw i8, ptr %6, i64 32
  %20 = load i32, ptr %19, align 4, !tbaa !42
  %invariant.gep = getelementptr i8, ptr %3, i64 4
  %factor.op.mul = shl i32 %10, 8
  %factor.op.mul6 = shl i32 %14, 8
  %factor.op.mul8 = shl i32 %16, 8
  %factor.op.mul10 = shl i32 %20, 8
  %21 = icmp sgt i32 %5, 0
  br i1 %21, label %.lr.ph.preheader, label %rgb16_32ToUV_half_c_template.exit

.lr.ph.preheader:                                 ; preds = %8
  %wide.trip.count = zext nneg i32 %5 to i64
  br label %.lr.ph

.lr.ph:                                           ; preds = %.lr.ph.preheader, %.lr.ph
  %indvars.iv = phi i64 [ 0, %.lr.ph.preheader ], [ %indvars.iv.next, %.lr.ph ]
  %22 = shl nsw i64 %indvars.iv, 3
  %23 = getelementptr inbounds nuw i8, ptr %3, i64 %22
  %24 = load i32, ptr %23, align 4, !tbaa !34
  %25 = lshr i32 %24, 8
  %gep = getelementptr i8, ptr %invariant.gep, i64 %22
  %26 = load i32, ptr %gep, align 4, !tbaa !34
  %27 = lshr i32 %26, 8
  %28 = and i32 %25, 65280
  %29 = and i32 %27, 65280
  %30 = add nuw nsw i32 %29, %28
  %31 = add nuw nsw i32 %27, %25
  %32 = sub nsw i32 %31, %30
  %33 = lshr i32 %32, 16
  %34 = and i32 %33, 511
  %35 = and i32 %32, 511
  %.reass = mul i32 %35, %factor.op.mul
  %36 = mul nsw i32 %30, %12
  %.reass7 = mul i32 %34, %factor.op.mul6
  %reass.add = add i32 %.reass7, %.reass
  %37 = add i32 %36, -2147352576
  %38 = add i32 %37, %reass.add
  %39 = lshr i32 %38, 18
  %40 = trunc nuw nsw i32 %39 to i16
  %41 = getelementptr inbounds nuw i16, ptr %0, i64 %indvars.iv
  store i16 %40, ptr %41, align 2, !tbaa !43
  %.reass9 = mul i32 %35, %factor.op.mul8
  %42 = mul nsw i32 %30, %18
  %.reass11 = mul i32 %34, %factor.op.mul10
  %reass.add4 = add i32 %.reass11, %.reass9
  %43 = add i32 %42, -2147352576
  %44 = add i32 %43, %reass.add4
  %45 = lshr i32 %44, 18
  %46 = trunc nuw nsw i32 %45 to i16
  %47 = getelementptr inbounds nuw i16, ptr %1, i64 %indvars.iv
  store i16 %46, ptr %47, align 2, !tbaa !43
  %indvars.iv.next = add nuw nsw i64 %indvars.iv, 1
  %exitcond.not = icmp eq i64 %indvars.iv.next, %wide.trip.count
  br i1 %exitcond.not, label %rgb16_32ToUV_half_c_template.exit, label %.lr.ph, !llvm.loop !78

rgb16_32ToUV_half_c_template.exit:                ; preds = %.lr.ph, %8
  ret void
}